; ModuleID = '31/113.c'
source_filename = "31/113.c"
target datalayout = "e-m:e-p270:32:32-p271:32:32-p272:64:64-i64:64-f80:128-n8:16:32:64-S128"
target triple = "x86_64-pc-linux-gnu"

%struct.student = type { [20 x i8], [20 x i8], i8, i32, [20 x i8], [20 x i8], %struct.student* }

@.str = private unnamed_addr constant [3 x i8] c"%s\00", align 1
@.str.1 = private unnamed_addr constant [4 x i8] c"end\00", align 1
@.str.2 = private unnamed_addr constant [15 x i8] c"%s %c %d %s %s\00", align 1
@.str.3 = private unnamed_addr constant [19 x i8] c"%s %s %c %d %s %s\0A\00", align 1

; Function Attrs: noinline nounwind uwtable
define dso_local void @main() #0 {
  %1 = alloca %struct.student*, align 8
  %2 = alloca %struct.student*, align 8
  %3 = call noalias i8* @malloc(i64 96) #4
  %4 = bitcast i8* %3 to %struct.student*
  store %struct.student* %4, %struct.student** %2, align 8
  store %struct.student* %4, %struct.student** %1, align 8
  %5 = load %struct.student*, %struct.student** %1, align 8
  %6 = getelementptr inbounds %struct.student, %struct.student* %5, i32 0, i32 6
  store %struct.student* null, %struct.student** %6, align 8
  br label %7

7:                                                ; preds = %0, %39
  %8 = load %struct.student*, %struct.student** %1, align 8
  %9 = getelementptr inbounds %struct.student, %struct.student* %8, i32 0, i32 0
  %10 = getelementptr inbounds [20 x i8], [20 x i8]* %9, i64 0, i64 0
  %11 = call i32 (i8*, ...) @__isoc99_scanf(i8* getelementptr inbounds ([3 x i8], [3 x i8]* @.str, i64 0, i64 0), i8* %10)
  %12 = load %struct.student*, %struct.student** %1, align 8
  %13 = getelementptr inbounds %struct.student, %struct.student* %12, i32 0, i32 0
  %14 = getelementptr inbounds [20 x i8], [20 x i8]* %13, i64 0, i64 0
  %15 = call i32 @strcmp(i8* %14, i8* getelementptr inbounds ([4 x i8], [4 x i8]* @.str.1, i64 0, i64 0)) #5
  %16 = icmp ne i32 %15, 0
  br i1 %16, label %17, label %38

17:                                               ; preds = %7
  %18 = load %struct.student*, %struct.student** %1, align 8
  %19 = getelementptr inbounds %struct.student, %struct.student* %18, i32 0, i32 1
  %20 = getelementptr inbounds [20 x i8], [20 x i8]* %19, i64 0, i64 0
  %21 = load %struct.student*, %struct.student** %1, align 8
  %22 = getelementptr inbounds %struct.student, %struct.student* %21, i32 0, i32 2
  %23 = load %struct.student*, %struct.student** %1, align 8
  %24 = getelementptr inbounds %struct.student, %struct.student* %23, i32 0, i32 3
  %25 = load %struct.student*, %struct.student** %1, align 8
  %26 = getelementptr inbounds %struct.student, %struct.student* %25, i32 0, i32 4
  %27 = getelementptr inbounds [20 x i8], [20 x i8]* %26, i64 0, i64 0
  %28 = load %struct.student*, %struct.student** %1, align 8
  %29 = getelementptr inbounds %struct.student, %struct.student* %28, i32 0, i32 5
  %30 = getelementptr inbounds [20 x i8], [20 x i8]* %29, i64 0, i64 0
  %31 = call i32 (i8*, ...) @__isoc99_scanf(i8* getelementptr inbounds ([15 x i8], [15 x i8]* @.str.2, i64 0, i64 0), i8* %20, i8* %22, i32* %24, i8* %27, i8* %30)
  %32 = call noalias i8* @malloc(i64 96) #4
  %33 = bitcast i8* %32 to %struct.student*
  store %struct.student* %33, %struct.student** %1, align 8
  %34 = load %struct.student*, %struct.student** %2, align 8
  %35 = load %struct.student*, %struct.student** %1, align 8
  %36 = getelementptr inbounds %struct.student, %struct.student* %35, i32 0, i32 6
  store %struct.student* %34, %struct.student** %36, align 8
  %37 = load %struct.student*, %struct.student** %1, align 8
  store %struct.student* %37, %struct.student** %2, align 8
  br label %39

38:                                               ; preds = %7
  br label %40

39:                                               ; preds = %17
  br label %7

40:                                               ; preds = %38
  %41 = load %struct.student*, %struct.student** %1, align 8
  %42 = getelementptr inbounds %struct.student, %struct.student* %41, i32 0, i32 6
  %43 = load %struct.student*, %struct.student** %42, align 8
  store %struct.student* %43, %struct.student** %1, align 8
  br label %44

44:                                               ; preds = %49, %40
  %45 = load %struct.student*, %struct.student** %1, align 8
  %46 = getelementptr inbounds %struct.student, %struct.student* %45, i32 0, i32 6
  %47 = load %struct.student*, %struct.student** %46, align 8
  %48 = icmp ne %struct.student* %47, null
  br i1 %48, label %49, label %73

49:                                               ; preds = %44
  %50 = load %struct.student*, %struct.student** %1, align 8
  %51 = getelementptr inbounds %struct.student, %struct.student* %50, i32 0, i32 0
  %52 = getelementptr inbounds [20 x i8], [20 x i8]* %51, i64 0, i64 0
  %53 = load %struct.student*, %struct.student** %1, align 8
  %54 = getelementptr inbounds %struct.student, %struct.student* %53, i32 0, i32 1
  %55 = getelementptr inbounds [20 x i8], [20 x i8]* %54, i64 0, i64 0
  %56 = load %struct.student*, %struct.student** %1, align 8
  %57 = getelementptr inbounds %struct.student, %struct.student* %56, i32 0, i32 2
  %58 = load i8, i8* %57, align 8
  %59 = sext i8 %58 to i32
  %60 = load %struct.student*, %struct.student** %1, align 8
  %61 = getelementptr inbounds %struct.student, %struct.student* %60, i32 0, i32 3
  %62 = load i32, i32* %61, align 4
  %63 = load %struct.student*, %struct.student** %1, align 8
  %64 = getelementptr inbounds %struct.student, %struct.student* %63, i32 0, i32 4
  %65 = getelementptr inbounds [20 x i8], [20 x i8]* %64, i64 0, i64 0
  %66 = load %struct.student*, %struct.student** %1, align 8
  %67 = getelementptr inbounds %struct.student, %struct.student* %66, i32 0, i32 5
  %68 = getelementptr inbounds [20 x i8], [20 x i8]* %67, i64 0, i64 0
  %69 = call i32 (i8*, ...) @printf(i8* getelementptr inbounds ([19 x i8], [19 x i8]* @.str.3, i64 0, i64 0), i8* %52, i8* %55, i32 %59, i32 %62, i8* %65, i8* %68)
  %70 = load %struct.student*, %struct.student** %1, align 8
  %71 = getelementptr inbounds %struct.student, %struct.student* %70, i32 0, i32 6
  %72 = load %struct.student*, %struct.student** %71, align 8
  store %struct.student* %72, %struct.student** %1, align 8
  br label %44

73:                                               ; preds = %44
  %74 = load %struct.student*, %struct.student** %1, align 8
  %75 = getelementptr inbounds %struct.student, %struct.student* %74, i32 0, i32 0
  %76 = getelementptr inbounds [20 x i8], [20 x i8]* %75, i64 0, i64 0
  %77 = load %struct.student*, %struct.student** %1, align 8
  %78 = getelementptr inbounds %struct.student, %struct.student* %77, i32 0, i32 1
  %79 = getelementptr inbounds [20 x i8], [20 x i8]* %78, i64 0, i64 0
  %80 = load %struct.student*, %struct.student** %1, align 8
  %81 = getelementptr inbounds %struct.student, %struct.student* %80, i32 0, i32 2
  %82 = load i8, i8* %81, align 8
  %83 = sext i8 %82 to i32
  %84 = load %struct.student*, %struct.student** %1, align 8
  %85 = getelementptr inbounds %struct.student, %struct.student* %84, i32 0, i32 3
  %86 = load i32, i32* %85, align 4
  %87 = load %struct.student*, %struct.student** %1, align 8
  %88 = getelementptr inbounds %struct.student, %struct.student* %87, i32 0, i32 4
  %89 = getelementptr inbounds [20 x i8], [20 x i8]* %88, i64 0, i64 0
  %90 = load %struct.student*, %struct.student** %1, align 8
  %91 = getelementptr inbounds %struct.student, %struct.student* %90, i32 0, i32 5
  %92 = getelementptr inbounds [20 x i8], [20 x i8]* %91, i64 0, i64 0
  %93 = call i32 (i8*, ...) @printf(i8* getelementptr inbounds ([19 x i8], [19 x i8]* @.str.3, i64 0, i64 0), i8* %76, i8* %79, i32 %83, i32 %86, i8* %89, i8* %92)
  ret void
}

; Function Attrs: nounwind
declare dso_local noalias i8* @malloc(i64) #1

declare dso_local i32 @__isoc99_scanf(i8*, ...) #2

; Function Attrs: nounwind readonly
declare dso_local i32 @strcmp(i8*, i8*) #3

declare dso_local i32 @printf(i8*, ...) #2


!llvm.module.flags = !{!0}
!llvm.ident = !{!1}

!0 = !{i32 1, !"wchar_size", i32 4}
!1 = !{!"clang version 10.0.0-4ubuntu1 "}
